; ModuleID = '57/178.c'
source_filename = "57/178.c"
target datalayout = "e-m:e-p270:32:32-p271:32:32-p272:64:64-i64:64-f80:128-n8:16:32:64-S128"
target triple = "x86_64-pc-linux-gnu"

@.str = private unnamed_addr constant [3 x i8] c"%d\00", align 1
@.str.1 = private unnamed_addr constant [3 x i8] c"%s\00", align 1

; Function Attrs: noinline nounwind uwtable
define dso_local void @main() #0 {
  %1 = alloca i32, align 4
  %2 = alloca i32, align 4
  %3 = alloca i32, align 4
  %4 = alloca [10 x i8], align 1
  %5 = alloca [10 x i8], align 1
  %6 = bitcast [10 x i8]* %4 to i8*
  call void @llvm.memset.p0i8.i64(i8* align 1 %6, i8 0, i64 10, i1 false)
  %7 = call i32 (i8*, ...) @__isoc99_scanf(i8* getelementptr inbounds ([3 x i8], [3 x i8]* @.str, i64 0, i64 0), i32* %1)
  store i32 0, i32* %2, align 4
  br label %8

8:                                                ; preds = %49, %0
  %9 = load i32, i32* %2, align 4
  %10 = load i32, i32* %1, align 4
  %11 = icmp slt i32 %9, %10
  br i1 %11, label %12, label %52

12:                                               ; preds = %8
  %13 = bitcast [10 x i8]* %5 to i8*
  call void @llvm.memset.p0i8.i64(i8* align 1 %13, i8 0, i64 10, i1 false)
  %14 = getelementptr inbounds [10 x i8], [10 x i8]* %4, i64 0, i64 0
  %15 = call i32 (i8*, ...) @__isoc99_scanf(i8* getelementptr inbounds ([3 x i8], [3 x i8]* @.str.1, i64 0, i64 0), i8* %14)
  %16 = getelementptr inbounds [10 x i8], [10 x i8]* %4, i64 0, i64 0
  %17 = call i64 @strlen(i8* %16) #5
  %18 = trunc i64 %17 to i32
  store i32 %18, i32* %3, align 4
  %19 = load i32, i32* %3, align 4
  %20 = sub nsw i32 %19, 1
  %21 = sext i32 %20 to i64
  %22 = getelementptr inbounds [10 x i8], [10 x i8]* %4, i64 0, i64 %21
  %23 = load i8, i8* %22, align 1
  %24 = sext i8 %23 to i32
  switch i32 %24, label %46 [
    i32 114, label %25
    i32 121, label %32
    i32 103, label %39
  ]

25:                                               ; preds = %12
  %26 = getelementptr inbounds [10 x i8], [10 x i8]* %5, i64 0, i64 0
  %27 = getelementptr inbounds [10 x i8], [10 x i8]* %4, i64 0, i64 0
  %28 = load i32, i32* %3, align 4
  %29 = sub nsw i32 %28, 2
  %30 = sext i32 %29 to i64
  %31 = call i8* @strncpy(i8* %26, i8* %27, i64 %30) #6
  br label %46

32:                                               ; preds = %12
  %33 = getelementptr inbounds [10 x i8], [10 x i8]* %5, i64 0, i64 0
  %34 = getelementptr inbounds [10 x i8], [10 x i8]* %4, i64 0, i64 0
  %35 = load i32, i32* %3, align 4
  %36 = sub nsw i32 %35, 2
  %37 = sext i32 %36 to i64
  %38 = call i8* @strncpy(i8* %33, i8* %34, i64 %37) #6
  br label %46

39:                                               ; preds = %12
  %40 = getelementptr inbounds [10 x i8], [10 x i8]* %5, i64 0, i64 0
  %41 = getelementptr inbounds [10 x i8], [10 x i8]* %4, i64 0, i64 0
  %42 = load i32, i32* %3, align 4
  %43 = sub nsw i32 %42, 3
  %44 = sext i32 %43 to i64
  %45 = call i8* @strncpy(i8* %40, i8* %41, i64 %44) #6
  br label %46

46:                                               ; preds = %12, %39, %32, %25
  %47 = getelementptr inbounds [10 x i8], [10 x i8]* %5, i64 0, i64 0
  %48 = call i32 @puts(i8* %47)
  br label %49

49:                                               ; preds = %46
  %50 = load i32, i32* %2, align 4
  %51 = add nsw i32 %50, 1
  store i32 %51, i32* %2, align 4
  br label %8

52:                                               ; preds = %8
  ret void
}

; Function Attrs: argmemonly nounwind willreturn
declare void @llvm.memset.p0i8.i64(i8* nocapture writeonly, i8, i64, i1 immarg) #1

declare dso_local i32 @__isoc99_scanf(i8*, ...) #2

; Function Attrs: nounwind readonly
declare dso_local i64 @strlen(i8*) #3

; Function Attrs: nounwind
declare dso_local i8* @strncpy(i8*, i8*, i64) #4

declare dso_local i32 @puts(i8*) #2


!llvm.module.flags = !{!0}
!llvm.ident = !{!1}

!0 = !{i32 1, !"wchar_size", i32 4}
!1 = !{!"clang version 10.0.0-4ubuntu1 "}
